; Function Attrs: inlinehint mustprogress nounwind uwtable
define internal void @_ZZN9grpc_core20ChannelArgTypeTraitsINS_12_GLOBAL__N_16GrpcLb22TokenAndClientStatsArgEvE6VTableEvENUlPvE0_8__invokeES5_(ptr noundef %0) #16 align 2 {
  %.not.i = icmp eq ptr %0, null
  br i1 %.not.i, label %_ZZN9grpc_core20ChannelArgTypeTraitsINS_12_GLOBAL__N_16GrpcLb22TokenAndClientStatsArgEvE6VTableEvENKUlPvE0_clES5_.exit, label %2

2:                                                ; preds = %1
  %3 = getelementptr inbounds nuw i8, ptr %0, i64 8
  %4 = atomicrmw sub ptr %3, i64 1 acq_rel, align 8
  %5 = icmp eq i64 %4, 1
  br i1 %5, label %6, label %_ZZN9grpc_core20ChannelArgTypeTraitsINS_12_GLOBAL__N_16GrpcLb22TokenAndClientStatsArgEvE6VTableEvENKUlPvE0_clES5_.exit, !prof !74

6:                                                ; preds = %2
  tail call fastcc void @_ZNK9grpc_core11UnrefDeleteclIKNS_12_GLOBAL__N_16GrpcLb22TokenAndClientStatsArgEEEvPT_(ptr noundef nonnull align 8 dereferenceable(16) %0)
  br label %_ZZN9grpc_core20ChannelArgTypeTraitsINS_12_GLOBAL__N_16GrpcLb22TokenAndClientStatsArgEvE6VTableEvENKUlPvE0_clES5_.exit

_ZZN9grpc_core20ChannelArgTypeTraitsINS_12_GLOBAL__N_16GrpcLb22TokenAndClientStatsArgEvE6VTableEvENKUlPvE0_clES5_.exit: ; preds = %1, %2, %6
  ret void
}